; Function Attrs: nounwind uwtable
define internal i32 @gzip_bidder_bid(ptr readnone captures(none) %0, ptr noundef %1) #0 {
  %3 = alloca i32, align 4
  call void @llvm.lifetime.start.p0(i64 4, ptr nonnull %3) #8
  %4 = call fastcc i64 @peek_at_header(ptr noundef %1, ptr noundef nonnull %3, ptr noundef null)
  %.not = icmp eq i64 %4, 0
  %5 = load i32, ptr %3, align 4
  %.0 = select i1 %.not, i32 0, i32 %5
  call void @llvm.lifetime.end.p0(i64 4, ptr nonnull %3) #8
  ret i32 %.0
}